target datalayout = "e-m:e-p270:32:32-p271:32:32-p272:64:64-i64:64-i128:128-f80:128-n8:16:32:64-S128"
target triple = "x86_64-pc-linux-gnu"

%"class.std::__cxx11::basic_string" = type { %"struct.std::__cxx11::basic_string<char>::_Alloc_hider", i64, %union.anon.0 }
%"struct.std::__cxx11::basic_string<char>::_Alloc_hider" = type { ptr }
%union.anon.0 = type { i64, [8 x i8] }
%"class.std::vector.39" = type { %"struct.std::_Vector_base.40" }
%"struct.std::_Vector_base.40" = type { %"struct.std::_Vector_base<unsigned char, std::allocator<unsigned char>>::_Vector_impl" }
%"struct.std::_Vector_base<unsigned char, std::allocator<unsigned char>>::_Vector_impl" = type { %"struct.std::_Vector_base<unsigned char, std::allocator<unsigned char>>::_Vector_impl_data" }
%"struct.std::_Vector_base<unsigned char, std::allocator<unsigned char>>::_Vector_impl_data" = type { ptr, ptr, ptr }
%"class.LIEF::ELF::CoreFile" = type { %"class.LIEF::ELF::Note", %"class.std::vector.44", i64, i32, i32 }
%"class.LIEF::ELF::Note" = type { %"class.LIEF::Object", %"class.std::__cxx11::basic_string", i32, i32, %"class.std::vector.39" }
%"class.LIEF::Object" = type { ptr }
%"class.std::vector.44" = type { %"struct.std::_Vector_base.45" }
%"struct.std::_Vector_base.45" = type { %"struct.std::_Vector_base<LIEF::ELF::CoreFile::entry_t, std::allocator<LIEF::ELF::CoreFile::entry_t>>::_Vector_impl" }
%"struct.std::_Vector_base<LIEF::ELF::CoreFile::entry_t, std::allocator<LIEF::ELF::CoreFile::entry_t>>::_Vector_impl" = type { %"struct.std::_Vector_base<LIEF::ELF::CoreFile::entry_t, std::allocator<LIEF::ELF::CoreFile::entry_t>>::_Vector_impl_data" }
%"struct.std::_Vector_base<LIEF::ELF::CoreFile::entry_t, std::allocator<LIEF::ELF::CoreFile::entry_t>>::_Vector_impl_data" = type { ptr, ptr, ptr }

; Function Attrs: mustprogress uwtable
define void @_ZN4LIEF3ELF8CoreFile5filesERKSt6vectorINS1_7entry_tESaIS3_EE(ptr noundef nonnull align 8 dereferenceable(112) %0, ptr noundef nonnull align 8 dereferenceable(24) %1) #3 align 2 {
  %3 = alloca ptr, align 8
  %4 = alloca ptr, align 8
  store ptr %0, ptr %3, align 8
  store ptr %1, ptr %4, align 8
  %5 = load ptr, ptr %3, align 8
  %6 = load ptr, ptr %4, align 8
  %7 = getelementptr inbounds %"class.LIEF::ELF::CoreFile", ptr %5, i32 0, i32 1
  %8 = call noundef nonnull align 8 dereferenceable(24) ptr @_ZNSt6vectorIN4LIEF3ELF8CoreFile7entry_tESaIS3_EEaSERKS5_(ptr noundef nonnull align 8 dereferenceable(24) %7, ptr noundef nonnull align 8 dereferenceable(24) %6)
  %9 = getelementptr inbounds %"class.LIEF::ELF::CoreFile", ptr %5, i32 0, i32 4
  %10 = load i32, ptr %9, align 4
  %11 = icmp eq i32 %10, 1
  br i1 %11, label %12, label %13

12:                                               ; preds = %2
  call void @_ZN4LIEF3ELF8CoreFile11write_filesINS0_7details5ELF32EEEvv(ptr noundef nonnull align 8 dereferenceable(112) %5)
  br label %14

13:                                               ; preds = %2
  call void @_ZN4LIEF3ELF8CoreFile11write_filesINS0_7details5ELF64EEEvv(ptr noundef nonnull align 8 dereferenceable(112) %5)
  br label %14

14:                                               ; preds = %13, %12
  ret void
}