; Function Attrs: mustprogress uwtable
define void @_ZN4LIEF3ELF8CoreFile5filesERKSt6vectorINS1_7entry_tESaIS3_EE(ptr noundef nonnull align 8 dereferenceable(112) %0, ptr noundef nonnull align 8 dereferenceable(24) %1) local_unnamed_addr #3 align 2 {
  %3 = getelementptr inbounds i8, ptr %0, i64 72
  %4 = tail call noundef nonnull align 8 dereferenceable(24) ptr @_ZNSt6vectorIN4LIEF3ELF8CoreFile7entry_tESaIS3_EEaSERKS5_(ptr noundef nonnull align 8 dereferenceable(24) %3, ptr noundef nonnull align 8 dereferenceable(24) %1)
  %5 = getelementptr inbounds i8, ptr %0, i64 108
  %6 = load i32, ptr %5, align 4
  %7 = icmp eq i32 %6, 1
  br i1 %7, label %8, label %9

8:                                                ; preds = %2
  tail call void @_ZN4LIEF3ELF8CoreFile11write_filesINS0_7details5ELF32EEEvv(ptr noundef nonnull align 8 dereferenceable(112) %0)
  br label %10

9:                                                ; preds = %2
  tail call void @_ZN4LIEF3ELF8CoreFile11write_filesINS0_7details5ELF64EEEvv(ptr noundef nonnull align 8 dereferenceable(112) %0)
  br label %10

10:                                               ; preds = %9, %8
  ret void
}